target datalayout = "e-m:e-p270:32:32-p271:32:32-p272:64:64-i64:64-i128:128-f80:128-n8:16:32:64-S128"
target triple = "x86_64-unknown-linux-gnu"

%"class.v8::LocalBase.3" = type { %"class.v8::IndirectHandleBase" }
%"class.v8::IndirectHandleBase" = type { ptr }
%"class.v8::Local.2" = type { %"class.v8::LocalBase.3" }
%"class.v8::Local" = type { %"class.v8::LocalBase" }
%"class.v8::LocalBase" = type { %"class.v8::IndirectHandleBase" }
%"class.v8::Local.0" = type { %"class.v8::LocalBase.1" }
%"class.v8::LocalBase.1" = type { %"class.v8::IndirectHandleBase" }

; Function Attrs: mustprogress nounwind uwtable
define dso_local noundef zeroext i1 @_ZN4node31AllowWasmCodeGenerationCallbackEN2v85LocalINS0_7ContextEEENS1_INS0_6StringEEE(ptr %context.coerce, ptr %.coerce) #4 {
entry:
  %slot.addr.i92 = alloca ptr, align 8
  %slot.addr.i91 = alloca ptr, align 8
  %this.addr.i.i86 = alloca ptr, align 8
  %this.addr.i87 = alloca ptr, align 8
  %this.addr.i.i = alloca ptr, align 8
  %this.addr.i84 = alloca ptr, align 8
  %this.addr.i82 = alloca ptr, align 8
  %slot.addr.i = alloca ptr, align 8
  %this.addr.i79 = alloca ptr, align 8
  %value.addr.i77 = alloca i64, align 8
  %shift_bits.i = alloca i32, align 4
  %heap_object_ptr.addr.i.i69 = alloca i64, align 8
  %offset.addr.i.i70 = alloca i32, align 4
  %addr.i.i71 = alloca i64, align 8
  %heap_object_ptr.addr.i72 = alloca i64, align 8
  %offset.addr.i73 = alloca i32, align 4
  %value.addr.i67 = alloca i64, align 8
  %heap_object_ptr.addr.i61 = alloca i64, align 8
  %offset.addr.i62 = alloca i32, align 4
  %addr.i63 = alloca i64, align 8
  %obj.addr.i58 = alloca i64, align 8
  %heap_object_ptr.addr.i2.i = alloca i64, align 8
  %offset.addr.i3.i = alloca i32, align 4
  %addr.i.i = alloca i64, align 8
  %heap_object_ptr.addr.i.i = alloca i64, align 8
  %offset.addr.i.i = alloca i32, align 4
  %obj.addr.i = alloca i64, align 8
  %map.i = alloca i64, align 8
  %value.addr.i55 = alloca i64, align 8
  %value.addr.i54 = alloca ptr, align 8
  %retval.i50 = alloca i1, align 1
  %this.addr.i51 = alloca ptr, align 8
  %obj.i = alloca i64, align 8
  %this.addr.i47 = alloca ptr, align 8
  %location.addr.i48 = alloca ptr, align 8
  %this.addr.i45 = alloca ptr, align 8
  %location.addr.i = alloca ptr, align 8
  %this.addr.i43 = alloca ptr, align 8
  %other.addr.i = alloca ptr, align 8
  %retval.i39 = alloca %"class.v8::LocalBase.3", align 8
  %isolate.addr.i40 = alloca ptr, align 8
  %value.addr.i41 = alloca i64, align 8
  %retval.i36 = alloca %"class.v8::Local.2", align 8
  %isolate.addr.i = alloca ptr, align 8
  %value.addr.i37 = alloca i64, align 8
  %ref.tmp.i = alloca %"class.v8::LocalBase.3", align 8
  %heap_object_ptr.addr.i30 = alloca i64, align 8
  %offset.addr.i31 = alloca i32, align 4
  %addr.i32 = alloca i64, align 8
  %heap_object_ptr.addr.i27 = alloca i64, align 8
  %offset.addr.i28 = alloca i32, align 4
  %addr.i = alloca i64, align 8
  %heap_object_ptr.addr.i = alloca i64, align 8
  %offset.addr.i = alloca i32, align 4
  %value.addr.i = alloca ptr, align 8
  %this.addr.i23 = alloca ptr, align 8
  %this.addr.i20 = alloca ptr, align 8
  %this.addr.i17 = alloca ptr, align 8
  %retval.i = alloca %"class.v8::Local.2", align 8
  %this.addr.i14 = alloca ptr, align 8
  %index.addr.i = alloca i32, align 4
  %ctx.i = alloca i64, align 8
  %embedder_data.i = alloca i64, align 8
  %value_offset.i = alloca i32, align 4
  %value.i = alloca i64, align 8
  %isolate.i = alloca ptr, align 8
  %this.addr.i = alloca ptr, align 8
  %context = alloca %"class.v8::Local", align 8
  %0 = alloca %"class.v8::Local.0", align 8
  %wasm_code_gen = alloca %"class.v8::Local.2", align 8
  %coerce.dive = getelementptr inbounds %"class.v8::Local", ptr %context, i32 0, i32 0
  %coerce.dive1 = getelementptr inbounds %"class.v8::LocalBase", ptr %coerce.dive, i32 0, i32 0
  %coerce.dive2 = getelementptr inbounds %"class.v8::IndirectHandleBase", ptr %coerce.dive1, i32 0, i32 0
  store ptr %context.coerce, ptr %coerce.dive2, align 8
  %coerce.dive3 = getelementptr inbounds %"class.v8::Local.0", ptr %0, i32 0, i32 0
  %coerce.dive4 = getelementptr inbounds %"class.v8::LocalBase.1", ptr %coerce.dive3, i32 0, i32 0
  %coerce.dive5 = getelementptr inbounds %"class.v8::IndirectHandleBase", ptr %coerce.dive4, i32 0, i32 0
  store ptr %.coerce, ptr %coerce.dive5, align 8
  store ptr %context, ptr %this.addr.i, align 8
  %this1.i = load ptr, ptr %this.addr.i, align 8
  store ptr %this1.i, ptr %this.addr.i79, align 8
  %this1.i80 = load ptr, ptr %this.addr.i79, align 8
  store ptr %this1.i80, ptr %this.addr.i82, align 8
  %this1.i83 = load ptr, ptr %this.addr.i82, align 8
  %1 = load ptr, ptr %this1.i83, align 8
  store ptr %1, ptr %slot.addr.i, align 8
  %2 = load ptr, ptr %slot.addr.i, align 8
  store ptr %2, ptr %this.addr.i14, align 8
  store i32 34, ptr %index.addr.i, align 4
  %this1.i15 = load ptr, ptr %this.addr.i14, align 8
  store ptr %this1.i15, ptr %value.addr.i, align 8
  %3 = load ptr, ptr %value.addr.i, align 8
  %4 = load i64, ptr %3, align 8
  store i64 %4, ptr %ctx.i, align 8
  %5 = load i64, ptr %ctx.i, align 8
  store i64 %5, ptr %heap_object_ptr.addr.i, align 8
  store i32 48, ptr %offset.addr.i, align 4
  %6 = load i64, ptr %heap_object_ptr.addr.i, align 8
  %7 = load i32, ptr %offset.addr.i, align 4
  store i64 %6, ptr %heap_object_ptr.addr.i27, align 8
  store i32 %7, ptr %offset.addr.i28, align 4
  %8 = load i64, ptr %heap_object_ptr.addr.i27, align 8
  %9 = load i32, ptr %offset.addr.i28, align 4
  %conv.i = sext i32 %9 to i64
  %add.i29 = add i64 %8, %conv.i
  %sub.i = sub i64 %add.i29, 1
  store i64 %sub.i, ptr %addr.i, align 8
  %10 = load i64, ptr %addr.i, align 8
  %11 = inttoptr i64 %10 to ptr
  %12 = load i64, ptr %11, align 8
  store i64 %12, ptr %embedder_data.i, align 8
  %13 = load i32, ptr %index.addr.i, align 4
  %mul.i = mul nsw i32 8, %13
  %add.i = add nsw i32 16, %mul.i
  store i32 %add.i, ptr %value_offset.i, align 4
  %14 = load i64, ptr %embedder_data.i, align 8
  %15 = load i32, ptr %value_offset.i, align 4
  store i64 %14, ptr %heap_object_ptr.addr.i30, align 8
  store i32 %15, ptr %offset.addr.i31, align 4
  %16 = load i64, ptr %heap_object_ptr.addr.i30, align 8
  %17 = load i32, ptr %offset.addr.i31, align 4
  %conv.i33 = sext i32 %17 to i64
  %add.i34 = add i64 %16, %conv.i33
  %sub.i35 = sub i64 %add.i34, 1
  store i64 %sub.i35, ptr %addr.i32, align 8
  %18 = load i64, ptr %addr.i32, align 8
  %19 = inttoptr i64 %18 to ptr
  %20 = load i64, ptr %19, align 8
  store i64 %20, ptr %value.i, align 8
  %21 = load i64, ptr %ctx.i, align 8
  %call4.i = call noundef ptr @_ZN2v88internal35IsolateFromNeverReadOnlySpaceObjectEm(i64 noundef %21) #3
  store ptr %call4.i, ptr %isolate.i, align 8
  %22 = load ptr, ptr %isolate.i, align 8
  %23 = load i64, ptr %value.i, align 8
  store ptr %22, ptr %isolate.addr.i, align 8
  store i64 %23, ptr %value.addr.i37, align 8
  %24 = load ptr, ptr %isolate.addr.i, align 8
  %25 = load i64, ptr %value.addr.i37, align 8
  store ptr %24, ptr %isolate.addr.i40, align 8
  store i64 %25, ptr %value.addr.i41, align 8
  %26 = load ptr, ptr %isolate.addr.i40, align 8
  %27 = load i64, ptr %value.addr.i41, align 8
  %call.i42 = call noundef ptr @_ZN2v811HandleScope12CreateHandleEPNS_8internal7IsolateEm(ptr noundef %26, i64 noundef %27) #3
  store ptr %retval.i39, ptr %this.addr.i45, align 8
  store ptr %call.i42, ptr %location.addr.i, align 8
  %this1.i46 = load ptr, ptr %this.addr.i45, align 8
  %28 = load ptr, ptr %location.addr.i, align 8
  store ptr %this1.i46, ptr %this.addr.i47, align 8
  store ptr %28, ptr %location.addr.i48, align 8
  %this1.i49 = load ptr, ptr %this.addr.i47, align 8
  %29 = load ptr, ptr %location.addr.i48, align 8
  store ptr %29, ptr %this1.i49, align 8
  %30 = load ptr, ptr %retval.i39, align 8
  store ptr %30, ptr %ref.tmp.i, align 8
  store ptr %retval.i36, ptr %this.addr.i43, align 8
  store ptr %ref.tmp.i, ptr %other.addr.i, align 8
  %this1.i44 = load ptr, ptr %this.addr.i43, align 8
  %31 = load ptr, ptr %other.addr.i, align 8
  call void @llvm.memcpy.p0.p0.i64(ptr align 8 %this1.i44, ptr align 8 %31, i64 8, i1 false)
  %32 = load ptr, ptr %retval.i36, align 8
  store ptr %32, ptr %retval.i, align 8
  %33 = load ptr, ptr %retval.i, align 8
  %coerce.dive7 = getelementptr inbounds %"class.v8::Local.2", ptr %wasm_code_gen, i32 0, i32 0
  %coerce.dive8 = getelementptr inbounds %"class.v8::LocalBase.3", ptr %coerce.dive7, i32 0, i32 0
  %coerce.dive9 = getelementptr inbounds %"class.v8::IndirectHandleBase", ptr %coerce.dive8, i32 0, i32 0
  store ptr %33, ptr %coerce.dive9, align 8
  store ptr %wasm_code_gen, ptr %this.addr.i20, align 8
  %this1.i21 = load ptr, ptr %this.addr.i20, align 8
  store ptr %this1.i21, ptr %this.addr.i84, align 8
  %this1.i85 = load ptr, ptr %this.addr.i84, align 8
  store ptr %this1.i85, ptr %this.addr.i.i, align 8
  %this1.i.i = load ptr, ptr %this.addr.i.i, align 8
  %34 = load ptr, ptr %this1.i.i, align 8
  store ptr %34, ptr %slot.addr.i92, align 8
  %35 = load ptr, ptr %slot.addr.i92, align 8
  store ptr %35, ptr %this.addr.i23, align 8
  %this1.i24 = load ptr, ptr %this.addr.i23, align 8
  store ptr %this1.i24, ptr %this.addr.i51, align 8
  %this1.i52 = load ptr, ptr %this.addr.i51, align 8
  store ptr %this1.i52, ptr %value.addr.i54, align 8
  %36 = load ptr, ptr %value.addr.i54, align 8
  %37 = load i64, ptr %36, align 8
  store i64 %37, ptr %obj.i, align 8
  %38 = load i64, ptr %obj.i, align 8
  store i64 %38, ptr %value.addr.i55, align 8
  %39 = load i64, ptr %value.addr.i55, align 8
  %and.i = and i64 %39, 3
  %cmp.i56 = icmp eq i64 %and.i, 1
  br i1 %cmp.i56, label %if.end.i, label %if.then.i

if.then.i:                                        ; preds = %entry
  store i1 false, ptr %retval.i50, align 1
  br label %_ZNK2v85Value16QuickIsUndefinedEv.exit

if.end.i:                                         ; preds = %entry
  %40 = load i64, ptr %obj.i, align 8
  store i64 %40, ptr %obj.addr.i, align 8
  %41 = load i64, ptr %obj.addr.i, align 8
  store i64 %41, ptr %heap_object_ptr.addr.i.i, align 8
  store i32 0, ptr %offset.addr.i.i, align 4
  %42 = load i64, ptr %heap_object_ptr.addr.i.i, align 8
  %43 = load i32, ptr %offset.addr.i.i, align 4
  store i64 %42, ptr %heap_object_ptr.addr.i2.i, align 8
  store i32 %43, ptr %offset.addr.i3.i, align 4
  %44 = load i64, ptr %heap_object_ptr.addr.i2.i, align 8
  %45 = load i32, ptr %offset.addr.i3.i, align 4
  %conv.i.i = sext i32 %45 to i64
  %add.i.i = add i64 %44, %conv.i.i
  %sub.i.i = sub i64 %add.i.i, 1
  store i64 %sub.i.i, ptr %addr.i.i, align 8
  %46 = load i64, ptr %addr.i.i, align 8
  %47 = inttoptr i64 %46 to ptr
  %48 = load i64, ptr %47, align 8
  store i64 %48, ptr %map.i, align 8
  %49 = load i64, ptr %map.i, align 8
  store i64 %49, ptr %heap_object_ptr.addr.i61, align 8
  store i32 12, ptr %offset.addr.i62, align 4
  %50 = load i64, ptr %heap_object_ptr.addr.i61, align 8
  %51 = load i32, ptr %offset.addr.i62, align 4
  %conv.i64 = sext i32 %51 to i64
  %add.i65 = add i64 %50, %conv.i64
  %sub.i66 = sub i64 %add.i65, 1
  store i64 %sub.i66, ptr %addr.i63, align 8
  %52 = load i64, ptr %addr.i63, align 8
  %53 = inttoptr i64 %52 to ptr
  %54 = load i16, ptr %53, align 2
  %conv.i57 = zext i16 %54 to i32
  %cmp.i = icmp ne i32 %conv.i57, 131
  br i1 %cmp.i, label %if.then4.i, label %if.end5.i

if.then4.i:                                       ; preds = %if.end.i
  store i1 false, ptr %retval.i50, align 1
  br label %_ZNK2v85Value16QuickIsUndefinedEv.exit

if.end5.i:                                        ; preds = %if.end.i
  %55 = load i64, ptr %obj.i, align 8
  store i64 %55, ptr %obj.addr.i58, align 8
  %56 = load i64, ptr %obj.addr.i58, align 8
  store i64 %56, ptr %heap_object_ptr.addr.i72, align 8
  store i32 40, ptr %offset.addr.i73, align 4
  %57 = load i64, ptr %heap_object_ptr.addr.i72, align 8
  %58 = load i32, ptr %offset.addr.i73, align 4
  store i64 %57, ptr %heap_object_ptr.addr.i.i69, align 8
  store i32 %58, ptr %offset.addr.i.i70, align 4
  %59 = load i64, ptr %heap_object_ptr.addr.i.i69, align 8
  %60 = load i32, ptr %offset.addr.i.i70, align 4
  %conv.i.i74 = sext i32 %60 to i64
  %add.i.i75 = add i64 %59, %conv.i.i74
  %sub.i.i76 = sub i64 %add.i.i75, 1
  store i64 %sub.i.i76, ptr %addr.i.i71, align 8
  %61 = load i64, ptr %addr.i.i71, align 8
  %62 = inttoptr i64 %61 to ptr
  %63 = load i64, ptr %62, align 8
  store i64 %63, ptr %value.addr.i67, align 8
  %64 = load i64, ptr %value.addr.i67, align 8
  store i64 %64, ptr %value.addr.i77, align 8
  store i32 32, ptr %shift_bits.i, align 4
  %65 = load i64, ptr %value.addr.i77, align 8
  %66 = load i32, ptr %shift_bits.i, align 4
  %sh_prom.i = zext i32 %66 to i64
  %shr.i = ashr i64 %65, %sh_prom.i
  %conv.i78 = trunc i64 %shr.i to i32
  %cmp7.i = icmp eq i32 %conv.i78, 5
  store i1 %cmp7.i, ptr %retval.i50, align 1
  br label %_ZNK2v85Value16QuickIsUndefinedEv.exit

_ZNK2v85Value16QuickIsUndefinedEv.exit:           ; preds = %if.end5.i, %if.then4.i, %if.then.i
  %67 = load i1, ptr %retval.i50, align 1
  br i1 %67, label %lor.end, label %lor.rhs

lor.rhs:                                          ; preds = %_ZNK2v85Value16QuickIsUndefinedEv.exit
  store ptr %wasm_code_gen, ptr %this.addr.i17, align 8
  %this1.i18 = load ptr, ptr %this.addr.i17, align 8
  store ptr %this1.i18, ptr %this.addr.i87, align 8
  %this1.i88 = load ptr, ptr %this.addr.i87, align 8
  store ptr %this1.i88, ptr %this.addr.i.i86, align 8
  %this1.i.i89 = load ptr, ptr %this.addr.i.i86, align 8
  %68 = load ptr, ptr %this1.i.i89, align 8
  store ptr %68, ptr %slot.addr.i91, align 8
  %69 = load ptr, ptr %slot.addr.i91, align 8
  %call13 = call noundef zeroext i1 @_ZNK2v85Value6IsTrueEv(ptr noundef nonnull align 1 dereferenceable(1) %69)
  br label %lor.end

lor.end:                                          ; preds = %lor.rhs, %_ZNK2v85Value16QuickIsUndefinedEv.exit
  %70 = phi i1 [ true, %_ZNK2v85Value16QuickIsUndefinedEv.exit ], [ %call13, %lor.rhs ]
  ret i1 %70
}