; Function Attrs: mustprogress nounwind uwtable
define dso_local noundef zeroext i1 @_ZN4node31AllowWasmCodeGenerationCallbackEN2v85LocalINS0_7ContextEEENS1_INS0_6StringEEE(ptr nocapture readonly %context.coerce, ptr nocapture readnone %.coerce) #3 {
entry:
  %0 = load i64, ptr %context.coerce, align 8
  %sub.i = add i64 %0, 47
  %1 = inttoptr i64 %sub.i to ptr
  %2 = load i64, ptr %1, align 8
  %sub.i35 = add i64 %2, 287
  %3 = inttoptr i64 %sub.i35 to ptr
  %4 = load i64, ptr %3, align 8
  %call4.i = tail call noundef ptr @_ZN2v88internal35IsolateFromNeverReadOnlySpaceObjectEm(i64 noundef %0) #12
  %call.i42 = tail call noundef ptr @_ZN2v811HandleScope12CreateHandleEPNS_8internal7IsolateEm(ptr noundef %call4.i, i64 noundef %4) #12
  %5 = load i64, ptr %call.i42, align 8
  %and.i = and i64 %5, 3
  %cmp.i56 = icmp eq i64 %and.i, 1
  br i1 %cmp.i56, label %if.end.i, label %lor.rhs

if.end.i:                                         ; preds = %entry
  %sub.i.i = add nsw i64 %5, -1
  %6 = inttoptr i64 %sub.i.i to ptr
  %7 = load i64, ptr %6, align 8
  %sub.i66 = add i64 %7, 11
  %8 = inttoptr i64 %sub.i66 to ptr
  %9 = load i16, ptr %8, align 2
  %cmp.i.not = icmp eq i16 %9, 131
  br i1 %cmp.i.not, label %if.end5.i, label %lor.rhs

if.end5.i:                                        ; preds = %if.end.i
  %sub.i.i76 = add i64 %5, 39
  %10 = inttoptr i64 %sub.i.i76 to ptr
  %11 = load i64, ptr %10, align 8
  %shr.i.mask = and i64 %11, -4294967296
  %cmp7.i = icmp eq i64 %shr.i.mask, 21474836480
  br i1 %cmp7.i, label %lor.end, label %lor.rhs

lor.rhs:                                          ; preds = %entry, %if.end.i, %if.end5.i
  %call13 = tail call noundef zeroext i1 @_ZNK2v85Value6IsTrueEv(ptr noundef nonnull align 1 dereferenceable(1) %call.i42) #12
  br label %lor.end

lor.end:                                          ; preds = %lor.rhs, %if.end5.i
  %12 = phi i1 [ true, %if.end5.i ], [ %call13, %lor.rhs ]
  ret i1 %12
}